target datalayout = "e-m:e-p270:32:32-p271:32:32-p272:64:64-i64:64-i128:128-f80:128-n8:16:32:64-S128"
target triple = "x86_64-pc-linux-gnu"

@.str = private unnamed_addr constant [34 x i8] c"../openssl/test/servername_test.c\00", align 1
@cert = internal global ptr null, align 8
@privkey = internal global ptr null, align 8
@host = internal global ptr @.str.15, align 8
@.str.36 = private unnamed_addr constant [114 x i8] c"create_ssl_ctx_pair(NULL, TLS_server_method(), TLS_client_method(), TLS1_VERSION, 0, &sctx, &cctx, cert, privkey)\00", align 1
@.str.37 = private unnamed_addr constant [67 x i8] c"create_ssl_objects(sctx, cctx, &serverssl, &clientssl, NULL, NULL)\00", align 1
@.str.38 = private unnamed_addr constant [60 x i8] c"create_ssl_connection(serverssl, clientssl, SSL_ERROR_NONE)\00", align 1
@.str.39 = private unnamed_addr constant [57 x i8] c"SSL_get_servername(serverssl, TLSEXT_NAMETYPE_host_name)\00", align 1

; Function Attrs: nounwind uwtable
define internal i32 @server_setup_sni() #0 {
  %1 = alloca ptr, align 8
  %2 = alloca ptr, align 8
  %3 = alloca ptr, align 8
  %4 = alloca ptr, align 8
  %5 = alloca i32, align 4
  call void @llvm.lifetime.start.p0(i64 8, ptr %1) #7
  store ptr null, ptr %1, align 8, !tbaa !14
  call void @llvm.lifetime.start.p0(i64 8, ptr %2) #7
  store ptr null, ptr %2, align 8, !tbaa !14
  call void @llvm.lifetime.start.p0(i64 8, ptr %3) #7
  store ptr null, ptr %3, align 8, !tbaa !12
  call void @llvm.lifetime.start.p0(i64 8, ptr %4) #7
  store ptr null, ptr %4, align 8, !tbaa !12
  call void @llvm.lifetime.start.p0(i64 4, ptr %5) #7
  store i32 0, ptr %5, align 4, !tbaa !9
  %6 = call ptr @TLS_server_method()
  %7 = call ptr @TLS_client_method()
  %8 = load ptr, ptr @cert, align 8, !tbaa !4
  %9 = load ptr, ptr @privkey, align 8, !tbaa !4
  %10 = call i32 @create_ssl_ctx_pair(ptr noundef null, ptr noundef %6, ptr noundef %7, i32 noundef 769, i32 noundef 0, ptr noundef %2, ptr noundef %1, ptr noundef %8, ptr noundef %9)
  %11 = icmp ne i32 %10, 0
  %12 = zext i1 %11 to i32
  %13 = call i32 @test_true(ptr noundef @.str, i32 noundef 211, ptr noundef @.str.36, i32 noundef %12)
  %14 = icmp ne i32 %13, 0
  br i1 %14, label %15, label %23

15:                                               ; preds = %0
  %16 = load ptr, ptr %2, align 8, !tbaa !14
  %17 = load ptr, ptr %1, align 8, !tbaa !14
  %18 = call i32 @create_ssl_objects(ptr noundef %16, ptr noundef %17, ptr noundef %4, ptr noundef %3, ptr noundef null, ptr noundef null)
  %19 = icmp ne i32 %18, 0
  %20 = zext i1 %19 to i32
  %21 = call i32 @test_true(ptr noundef @.str, i32 noundef 213, ptr noundef @.str.37, i32 noundef %20)
  %22 = icmp ne i32 %21, 0
  br i1 %22, label %24, label %23

23:                                               ; preds = %15, %0
  br label %43

24:                                               ; preds = %15
  %25 = load ptr, ptr %4, align 8, !tbaa !12
  %26 = load ptr, ptr @host, align 8, !tbaa !4
  %27 = call i64 @SSL_ctrl(ptr noundef %25, i32 noundef 55, i64 noundef 0, ptr noundef %26)
  %28 = load ptr, ptr %4, align 8, !tbaa !12
  %29 = load ptr, ptr %3, align 8, !tbaa !12
  %30 = call i32 @create_ssl_connection(ptr noundef %28, ptr noundef %29, i32 noundef 0)
  %31 = icmp ne i32 %30, 0
  %32 = zext i1 %31 to i32
  %33 = call i32 @test_true(ptr noundef @.str, i32 noundef 219, ptr noundef @.str.38, i32 noundef %32)
  %34 = icmp ne i32 %33, 0
  br i1 %34, label %36, label %35

35:                                               ; preds = %24
  br label %43

36:                                               ; preds = %24
  %37 = load ptr, ptr %4, align 8, !tbaa !12
  %38 = call ptr @SSL_get_servername(ptr noundef %37, i32 noundef 0)
  %39 = call i32 @test_ptr_null(ptr noundef @.str, i32 noundef 223, ptr noundef @.str.39, ptr noundef %38)
  %40 = icmp ne i32 %39, 0
  br i1 %40, label %42, label %41

41:                                               ; preds = %36
  br label %43

42:                                               ; preds = %36
  store i32 1, ptr %5, align 4, !tbaa !9
  br label %43

43:                                               ; preds = %42, %41, %35, %23
  %44 = load ptr, ptr %4, align 8, !tbaa !12
  call void @SSL_free(ptr noundef %44)
  %45 = load ptr, ptr %3, align 8, !tbaa !12
  call void @SSL_free(ptr noundef %45)
  %46 = load ptr, ptr %2, align 8, !tbaa !14
  call void @SSL_CTX_free(ptr noundef %46)
  %47 = load ptr, ptr %1, align 8, !tbaa !14
  call void @SSL_CTX_free(ptr noundef %47)
  %48 = load i32, ptr %5, align 4, !tbaa !9
  call void @llvm.lifetime.end.p0(i64 4, ptr %5) #7
  call void @llvm.lifetime.end.p0(i64 8, ptr %4) #7
  call void @llvm.lifetime.end.p0(i64 8, ptr %3) #7
  call void @llvm.lifetime.end.p0(i64 8, ptr %2) #7
  call void @llvm.lifetime.end.p0(i64 8, ptr %1) #7
  ret i32 %48
}