; Function Attrs: nounwind uwtable
define internal range(i32 0, 2) i32 @server_setup_sni() #0 {
  %1 = alloca ptr, align 8
  %2 = alloca ptr, align 8
  %3 = alloca ptr, align 8
  %4 = alloca ptr, align 8
  call void @llvm.lifetime.start.p0(i64 8, ptr nonnull %1) #5
  store ptr null, ptr %1, align 8, !tbaa !10
  call void @llvm.lifetime.start.p0(i64 8, ptr nonnull %2) #5
  store ptr null, ptr %2, align 8, !tbaa !10
  call void @llvm.lifetime.start.p0(i64 8, ptr nonnull %3) #5
  store ptr null, ptr %3, align 8, !tbaa !12
  call void @llvm.lifetime.start.p0(i64 8, ptr nonnull %4) #5
  store ptr null, ptr %4, align 8, !tbaa !12
  %5 = tail call ptr @TLS_server_method() #5
  %6 = tail call ptr @TLS_client_method() #5
  %7 = load ptr, ptr @cert, align 8, !tbaa !4
  %8 = load ptr, ptr @privkey, align 8, !tbaa !4
  %9 = call i32 @create_ssl_ctx_pair(ptr noundef null, ptr noundef %5, ptr noundef %6, i32 noundef 769, i32 noundef 0, ptr noundef nonnull %2, ptr noundef nonnull %1, ptr noundef %7, ptr noundef %8) #5
  %10 = icmp ne i32 %9, 0
  %11 = zext i1 %10 to i32
  %12 = call i32 @test_true(ptr noundef nonnull @.str, i32 noundef 211, ptr noundef nonnull @.str.36, i32 noundef %11) #5
  %.not = icmp eq i32 %12, 0
  br i1 %.not, label %31, label %13

13:                                               ; preds = %0
  %14 = load ptr, ptr %2, align 8, !tbaa !10
  %15 = load ptr, ptr %1, align 8, !tbaa !10
  %16 = call i32 @create_ssl_objects(ptr noundef %14, ptr noundef %15, ptr noundef nonnull %4, ptr noundef nonnull %3, ptr noundef null, ptr noundef null) #5
  %17 = icmp ne i32 %16, 0
  %18 = zext i1 %17 to i32
  %19 = call i32 @test_true(ptr noundef nonnull @.str, i32 noundef 213, ptr noundef nonnull @.str.37, i32 noundef %18) #5
  %.not1 = icmp eq i32 %19, 0
  %.pre5 = load ptr, ptr %4, align 8, !tbaa !12
  br i1 %.not1, label %31, label %20

20:                                               ; preds = %13
  %21 = call i64 @SSL_ctrl(ptr noundef %.pre5, i32 noundef 55, i64 noundef 0, ptr noundef nonnull @.str.15) #5
  %22 = load ptr, ptr %4, align 8, !tbaa !12
  %23 = load ptr, ptr %3, align 8, !tbaa !12
  %24 = call i32 @create_ssl_connection(ptr noundef %22, ptr noundef %23, i32 noundef 0) #5
  %25 = icmp ne i32 %24, 0
  %26 = zext i1 %25 to i32
  %27 = call i32 @test_true(ptr noundef nonnull @.str, i32 noundef 219, ptr noundef nonnull @.str.38, i32 noundef %26) #5
  %.not2 = icmp eq i32 %27, 0
  %.pre4 = load ptr, ptr %4, align 8, !tbaa !12
  br i1 %.not2, label %31, label %28

28:                                               ; preds = %20
  %29 = call ptr @SSL_get_servername(ptr noundef %.pre4, i32 noundef 0) #5
  %30 = call i32 @test_ptr_null(ptr noundef nonnull @.str, i32 noundef 223, ptr noundef nonnull @.str.39, ptr noundef %29) #5
  %.not3 = icmp ne i32 %30, 0
  %spec.select = zext i1 %.not3 to i32
  %.pre = load ptr, ptr %4, align 8, !tbaa !12
  br label %31

31:                                               ; preds = %28, %20, %0, %13
  %32 = phi ptr [ %.pre4, %20 ], [ %.pre5, %13 ], [ null, %0 ], [ %.pre, %28 ]
  %.0 = phi i32 [ 0, %20 ], [ 0, %13 ], [ 0, %0 ], [ %spec.select, %28 ]
  call void @SSL_free(ptr noundef %32) #5
  %33 = load ptr, ptr %3, align 8, !tbaa !12
  call void @SSL_free(ptr noundef %33) #5
  %34 = load ptr, ptr %2, align 8, !tbaa !10
  call void @SSL_CTX_free(ptr noundef %34) #5
  %35 = load ptr, ptr %1, align 8, !tbaa !10
  call void @SSL_CTX_free(ptr noundef %35) #5
  call void @llvm.lifetime.end.p0(i64 8, ptr nonnull %4) #5
  call void @llvm.lifetime.end.p0(i64 8, ptr nonnull %3) #5
  call void @llvm.lifetime.end.p0(i64 8, ptr nonnull %2) #5
  call void @llvm.lifetime.end.p0(i64 8, ptr nonnull %1) #5
  ret i32 %.0
}